; Function Attrs: mustprogress nofree nounwind uwtable
define internal fastcc noundef nonnull ptr @_ZN4llvm16itanium_demangle22AbstractManglingParserINS0_14ManglingParserIN12_GLOBAL__N_116DefaultAllocatorEEES4_E4makeINS0_8CastExprEJRSt17basic_string_viewIcSt11char_traitsIcEERPNS0_4NodeESG_NSE_4PrecEEEESF_DpOT0_(ptr nocapture noundef nonnull align 16 dereferenceable(4928) %0, ptr nocapture noundef nonnull readonly align 8 dereferenceable(16) %1, ptr nocapture noundef nonnull readonly align 8 dereferenceable(8) %2, ptr nocapture noundef nonnull readonly align 8 dereferenceable(8) %3, ptr nocapture noundef nonnull readonly align 4 dereferenceable(4) %4) unnamed_addr #12 align 2 {
  %6 = getelementptr inbounds i8, ptr %0, i64 4912
  %7 = load ptr, ptr %6, align 16
  %8 = getelementptr inbounds nuw i8, ptr %7, i64 8
  %9 = load i64, ptr %8, align 8
  %10 = add i64 %9, -4032
  %11 = icmp ult i64 %10, -4080
  br i1 %11, label %12, label %_ZN12_GLOBAL__N_116DefaultAllocator8makeNodeIN4llvm16itanium_demangle8CastExprEJRSt17basic_string_viewIcSt11char_traitsIcEERPNS3_4NodeESC_NSA_4PrecEEEEPT_DpOT0_.exit

12:                                               ; preds = %5
  %13 = tail call noalias dereferenceable_or_null(4096) ptr @malloc(i64 noundef 4096) #23
  %14 = icmp eq ptr %13, null
  br i1 %14, label %15, label %_ZN12_GLOBAL__N_120BumpPointerAllocator4growEv.exit.i.i

15:                                               ; preds = %12
  tail call void @_ZSt9terminatev() #22
  unreachable

_ZN12_GLOBAL__N_120BumpPointerAllocator4growEv.exit.i.i: ; preds = %12
  store ptr %7, ptr %13, align 8
  %16 = getelementptr inbounds nuw i8, ptr %13, i64 8
  store i64 0, ptr %16, align 8
  store ptr %13, ptr %6, align 16
  br label %_ZN12_GLOBAL__N_116DefaultAllocator8makeNodeIN4llvm16itanium_demangle8CastExprEJRSt17basic_string_viewIcSt11char_traitsIcEERPNS3_4NodeESC_NSA_4PrecEEEEPT_DpOT0_.exit

_ZN12_GLOBAL__N_116DefaultAllocator8makeNodeIN4llvm16itanium_demangle8CastExprEJRSt17basic_string_viewIcSt11char_traitsIcEERPNS3_4NodeESC_NSA_4PrecEEEEPT_DpOT0_.exit: ; preds = %5, %_ZN12_GLOBAL__N_120BumpPointerAllocator4growEv.exit.i.i
  %17 = phi i64 [ 0, %_ZN12_GLOBAL__N_120BumpPointerAllocator4growEv.exit.i.i ], [ %9, %5 ]
  %18 = phi ptr [ %13, %_ZN12_GLOBAL__N_120BumpPointerAllocator4growEv.exit.i.i ], [ %7, %5 ]
  %19 = getelementptr inbounds nuw i8, ptr %18, i64 8
  %20 = add nsw i64 %17, 48
  store i64 %20, ptr %19, align 8
  %21 = load ptr, ptr %6, align 16
  %22 = getelementptr inbounds i8, ptr %21, i64 16
  %23 = getelementptr inbounds nuw i8, ptr %21, i64 8
  %24 = load i64, ptr %23, align 8
  %25 = getelementptr inbounds i8, ptr %22, i64 %24
  %26 = getelementptr inbounds i8, ptr %25, i64 -48
  %.sroa.0.0.copyload.i = load i64, ptr %1, align 8
  %.sroa.2.0..sroa_idx.i = getelementptr inbounds i8, ptr %1, i64 8
  %.sroa.2.0.copyload.i = load ptr, ptr %.sroa.2.0..sroa_idx.i, align 8
  %27 = load ptr, ptr %2, align 8
  %28 = load ptr, ptr %3, align 8
  %29 = load i32, ptr %4, align 4
  %30 = getelementptr inbounds i8, ptr %25, i64 -40
  store i8 61, ptr %30, align 8
  %31 = getelementptr inbounds i8, ptr %25, i64 -39
  %32 = trunc i32 %29 to i16
  %33 = load i16, ptr %31, align 1
  %34 = and i16 %32, 63
  %35 = and i16 %33, -4096
  %36 = or disjoint i16 %34, %35
  %37 = or disjoint i16 %36, 1344
  store i16 %37, ptr %31, align 1
  store ptr getelementptr inbounds inrange(-16, 72) (i8, ptr @_ZTVN4llvm16itanium_demangle8CastExprE, i64 16), ptr %26, align 8
  %38 = getelementptr inbounds i8, ptr %25, i64 -32
  store i64 %.sroa.0.0.copyload.i, ptr %38, align 8
  %.sroa.2.0..sroa_idx.i.i = getelementptr inbounds i8, ptr %25, i64 -24
  store ptr %.sroa.2.0.copyload.i, ptr %.sroa.2.0..sroa_idx.i.i, align 8
  %39 = getelementptr inbounds i8, ptr %25, i64 -16
  store ptr %27, ptr %39, align 8
  %40 = getelementptr inbounds i8, ptr %25, i64 -8
  store ptr %28, ptr %40, align 8
  ret ptr %26
}